target datalayout = "e-m:e-p270:32:32-p271:32:32-p272:64:64-i64:64-i128:128-f80:128-n8:16:32:64-S128"
target triple = "x86_64-pc-linux-gnu"

%struct.KBKDF = type { ptr, i32, ptr, i32, ptr, i64, ptr, i64, ptr, i64, ptr, i64, i32, i32, i32 }

@.str = private unnamed_addr constant [50 x i8] c"../openssl/providers/implementations/kdfs/kbkdf.c\00", align 1

; Function Attrs: nounwind uwtable
define internal void @kbkdf_reset(ptr noundef %0) #0 {
  %2 = alloca ptr, align 8
  %3 = alloca ptr, align 8
  %4 = alloca ptr, align 8
  store ptr %0, ptr %2, align 8, !tbaa !3
  call void @llvm.lifetime.start.p0(i64 8, ptr %3) #6
  %5 = load ptr, ptr %2, align 8, !tbaa !3
  store ptr %5, ptr %3, align 8, !tbaa !3
  call void @llvm.lifetime.start.p0(i64 8, ptr %4) #6
  %6 = load ptr, ptr %3, align 8, !tbaa !3
  %7 = getelementptr inbounds nuw %struct.KBKDF, ptr %6, i32 0, i32 0
  %8 = load ptr, ptr %7, align 8, !tbaa !7
  store ptr %8, ptr %4, align 8, !tbaa !3
  %9 = load ptr, ptr %3, align 8, !tbaa !3
  %10 = getelementptr inbounds nuw %struct.KBKDF, ptr %9, i32 0, i32 2
  %11 = load ptr, ptr %10, align 8, !tbaa !13
  call void @EVP_MAC_CTX_free(ptr noundef %11)
  %12 = load ptr, ptr %3, align 8, !tbaa !3
  %13 = getelementptr inbounds nuw %struct.KBKDF, ptr %12, i32 0, i32 8
  %14 = load ptr, ptr %13, align 8, !tbaa !18
  %15 = load ptr, ptr %3, align 8, !tbaa !3
  %16 = getelementptr inbounds nuw %struct.KBKDF, ptr %15, i32 0, i32 9
  %17 = load i64, ptr %16, align 8, !tbaa !19
  call void @CRYPTO_clear_free(ptr noundef %14, i64 noundef %17, ptr noundef @.str, i32 noundef 147)
  %18 = load ptr, ptr %3, align 8, !tbaa !3
  %19 = getelementptr inbounds nuw %struct.KBKDF, ptr %18, i32 0, i32 6
  %20 = load ptr, ptr %19, align 8, !tbaa !16
  %21 = load ptr, ptr %3, align 8, !tbaa !3
  %22 = getelementptr inbounds nuw %struct.KBKDF, ptr %21, i32 0, i32 7
  %23 = load i64, ptr %22, align 8, !tbaa !17
  call void @CRYPTO_clear_free(ptr noundef %20, i64 noundef %23, ptr noundef @.str, i32 noundef 148)
  %24 = load ptr, ptr %3, align 8, !tbaa !3
  %25 = getelementptr inbounds nuw %struct.KBKDF, ptr %24, i32 0, i32 4
  %26 = load ptr, ptr %25, align 8, !tbaa !14
  %27 = load ptr, ptr %3, align 8, !tbaa !3
  %28 = getelementptr inbounds nuw %struct.KBKDF, ptr %27, i32 0, i32 5
  %29 = load i64, ptr %28, align 8, !tbaa !15
  call void @CRYPTO_clear_free(ptr noundef %26, i64 noundef %29, ptr noundef @.str, i32 noundef 149)
  %30 = load ptr, ptr %3, align 8, !tbaa !3
  %31 = getelementptr inbounds nuw %struct.KBKDF, ptr %30, i32 0, i32 10
  %32 = load ptr, ptr %31, align 8, !tbaa !20
  %33 = load ptr, ptr %3, align 8, !tbaa !3
  %34 = getelementptr inbounds nuw %struct.KBKDF, ptr %33, i32 0, i32 11
  %35 = load i64, ptr %34, align 8, !tbaa !21
  call void @CRYPTO_clear_free(ptr noundef %32, i64 noundef %35, ptr noundef @.str, i32 noundef 150)
  %36 = load ptr, ptr %3, align 8, !tbaa !3
  call void @llvm.memset.p0.i64(ptr align 8 %36, i8 0, i64 112, i1 false)
  %37 = load ptr, ptr %4, align 8, !tbaa !3
  %38 = load ptr, ptr %3, align 8, !tbaa !3
  %39 = getelementptr inbounds nuw %struct.KBKDF, ptr %38, i32 0, i32 0
  store ptr %37, ptr %39, align 8, !tbaa !7
  %40 = load ptr, ptr %3, align 8, !tbaa !3
  call void @init(ptr noundef %40)
  call void @llvm.lifetime.end.p0(i64 8, ptr %4) #6
  call void @llvm.lifetime.end.p0(i64 8, ptr %3) #6
  ret void
}

; Function Attrs: nounwind uwtable
define internal void @init(ptr noundef %0) #0 {
  %2 = alloca ptr, align 8
  store ptr %0, ptr %2, align 8, !tbaa !3
  %3 = load ptr, ptr %2, align 8, !tbaa !3
  %4 = getelementptr inbounds nuw %struct.KBKDF, ptr %3, i32 0, i32 3
  store i32 32, ptr %4, align 8, !tbaa !23
  %5 = load ptr, ptr %2, align 8, !tbaa !3
  %6 = getelementptr inbounds nuw %struct.KBKDF, ptr %5, i32 0, i32 12
  store i32 1, ptr %6, align 8, !tbaa !24
  %7 = load ptr, ptr %2, align 8, !tbaa !3
  %8 = getelementptr inbounds nuw %struct.KBKDF, ptr %7, i32 0, i32 14
  store i32 1, ptr %8, align 8, !tbaa !25
  %9 = load ptr, ptr %2, align 8, !tbaa !3
  %10 = getelementptr inbounds nuw %struct.KBKDF, ptr %9, i32 0, i32 13
  store i32 0, ptr %10, align 4, !tbaa !26
  ret void
}

; Function Attrs: nounwind uwtable
define internal void @kbkdf_free(ptr noundef %0) #0 {
  %2 = alloca ptr, align 8
  %3 = alloca ptr, align 8
  store ptr %0, ptr %2, align 8, !tbaa !3
  call void @llvm.lifetime.start.p0(i64 8, ptr %3) #6
  %4 = load ptr, ptr %2, align 8, !tbaa !3
  store ptr %4, ptr %3, align 8, !tbaa !3
  %5 = load ptr, ptr %3, align 8, !tbaa !3
  %6 = icmp ne ptr %5, null
  br i1 %6, label %7, label %10

7:                                                ; preds = %1
  %8 = load ptr, ptr %3, align 8, !tbaa !3
  call void @kbkdf_reset(ptr noundef %8)
  %9 = load ptr, ptr %3, align 8, !tbaa !3
  call void @CRYPTO_free(ptr noundef %9, ptr noundef @.str, i32 noundef 137)
  br label %10

10:                                               ; preds = %7, %1
  call void @llvm.lifetime.end.p0(i64 8, ptr %3) #6
  ret void
}

; Function Attrs: nounwind uwtable
define internal ptr @kbkdf_new(ptr noundef %0) #0 {
  %2 = alloca ptr, align 8
  %3 = alloca ptr, align 8
  %4 = alloca ptr, align 8
  %5 = alloca i32, align 4
  store ptr %0, ptr %3, align 8, !tbaa !3
  call void @llvm.lifetime.start.p0(i64 8, ptr %4) #6
  %6 = call i32 @ossl_prov_is_running()
  %7 = icmp ne i32 %6, 0
  br i1 %7, label %9, label %8

8:                                                ; preds = %1
  store ptr null, ptr %2, align 8
  store i32 1, ptr %5, align 4
  br label %20

9:                                                ; preds = %1
  %10 = call noalias ptr @CRYPTO_zalloc(i64 noundef 112, ptr noundef @.str, i32 noundef 121)
  store ptr %10, ptr %4, align 8, !tbaa !3
  %11 = load ptr, ptr %4, align 8, !tbaa !3
  %12 = icmp eq ptr %11, null
  br i1 %12, label %13, label %14

13:                                               ; preds = %9
  store ptr null, ptr %2, align 8
  store i32 1, ptr %5, align 4
  br label %20

14:                                               ; preds = %9
  %15 = load ptr, ptr %3, align 8, !tbaa !3
  %16 = load ptr, ptr %4, align 8, !tbaa !3
  %17 = getelementptr inbounds nuw %struct.KBKDF, ptr %16, i32 0, i32 0
  store ptr %15, ptr %17, align 8, !tbaa !7
  %18 = load ptr, ptr %4, align 8, !tbaa !3
  call void @init(ptr noundef %18)
  %19 = load ptr, ptr %4, align 8, !tbaa !3
  store ptr %19, ptr %2, align 8
  store i32 1, ptr %5, align 4
  br label %20

20:                                               ; preds = %14, %13, %8
  call void @llvm.lifetime.end.p0(i64 8, ptr %4) #6
  %21 = load ptr, ptr %2, align 8
  ret ptr %21
}

; Function Attrs: nounwind uwtable
define internal ptr @kbkdf_dup(ptr noundef %0) #0 {
  %2 = alloca ptr, align 8
  %3 = alloca ptr, align 8
  %4 = alloca ptr, align 8
  %5 = alloca ptr, align 8
  %6 = alloca i32, align 4
  store ptr %0, ptr %3, align 8, !tbaa !3
  call void @llvm.lifetime.start.p0(i64 8, ptr %4) #6
  %7 = load ptr, ptr %3, align 8, !tbaa !3
  store ptr %7, ptr %4, align 8, !tbaa !3
  call void @llvm.lifetime.start.p0(i64 8, ptr %5) #6
  %8 = load ptr, ptr %4, align 8, !tbaa !3
  %9 = getelementptr inbounds nuw %struct.KBKDF, ptr %8, i32 0, i32 0
  %10 = load ptr, ptr %9, align 8, !tbaa !7
  %11 = call ptr @kbkdf_new(ptr noundef %10)
  store ptr %11, ptr %5, align 8, !tbaa !3
  %12 = load ptr, ptr %5, align 8, !tbaa !3
  %13 = icmp ne ptr %12, null
  br i1 %13, label %14, label %104

14:                                               ; preds = %1
  %15 = load ptr, ptr %4, align 8, !tbaa !3
  %16 = getelementptr inbounds nuw %struct.KBKDF, ptr %15, i32 0, i32 2
  %17 = load ptr, ptr %16, align 8, !tbaa !13
  %18 = call ptr @EVP_MAC_CTX_dup(ptr noundef %17)
  %19 = load ptr, ptr %5, align 8, !tbaa !3
  %20 = getelementptr inbounds nuw %struct.KBKDF, ptr %19, i32 0, i32 2
  store ptr %18, ptr %20, align 8, !tbaa !13
  %21 = load ptr, ptr %5, align 8, !tbaa !3
  %22 = getelementptr inbounds nuw %struct.KBKDF, ptr %21, i32 0, i32 2
  %23 = load ptr, ptr %22, align 8, !tbaa !13
  %24 = icmp eq ptr %23, null
  br i1 %24, label %77, label %25

25:                                               ; preds = %14
  %26 = load ptr, ptr %4, align 8, !tbaa !3
  %27 = getelementptr inbounds nuw %struct.KBKDF, ptr %26, i32 0, i32 4
  %28 = load ptr, ptr %27, align 8, !tbaa !14
  %29 = load ptr, ptr %4, align 8, !tbaa !3
  %30 = getelementptr inbounds nuw %struct.KBKDF, ptr %29, i32 0, i32 5
  %31 = load i64, ptr %30, align 8, !tbaa !15
  %32 = load ptr, ptr %5, align 8, !tbaa !3
  %33 = getelementptr inbounds nuw %struct.KBKDF, ptr %32, i32 0, i32 4
  %34 = load ptr, ptr %5, align 8, !tbaa !3
  %35 = getelementptr inbounds nuw %struct.KBKDF, ptr %34, i32 0, i32 5
  %36 = call i32 @ossl_prov_memdup(ptr noundef %28, i64 noundef %31, ptr noundef %33, ptr noundef %35)
  %37 = icmp ne i32 %36, 0
  br i1 %37, label %38, label %77

38:                                               ; preds = %25
  %39 = load ptr, ptr %4, align 8, !tbaa !3
  %40 = getelementptr inbounds nuw %struct.KBKDF, ptr %39, i32 0, i32 6
  %41 = load ptr, ptr %40, align 8, !tbaa !16
  %42 = load ptr, ptr %4, align 8, !tbaa !3
  %43 = getelementptr inbounds nuw %struct.KBKDF, ptr %42, i32 0, i32 7
  %44 = load i64, ptr %43, align 8, !tbaa !17
  %45 = load ptr, ptr %5, align 8, !tbaa !3
  %46 = getelementptr inbounds nuw %struct.KBKDF, ptr %45, i32 0, i32 6
  %47 = load ptr, ptr %5, align 8, !tbaa !3
  %48 = getelementptr inbounds nuw %struct.KBKDF, ptr %47, i32 0, i32 7
  %49 = call i32 @ossl_prov_memdup(ptr noundef %41, i64 noundef %44, ptr noundef %46, ptr noundef %48)
  %50 = icmp ne i32 %49, 0
  br i1 %50, label %51, label %77

51:                                               ; preds = %38
  %52 = load ptr, ptr %4, align 8, !tbaa !3
  %53 = getelementptr inbounds nuw %struct.KBKDF, ptr %52, i32 0, i32 8
  %54 = load ptr, ptr %53, align 8, !tbaa !18
  %55 = load ptr, ptr %4, align 8, !tbaa !3
  %56 = getelementptr inbounds nuw %struct.KBKDF, ptr %55, i32 0, i32 9
  %57 = load i64, ptr %56, align 8, !tbaa !19
  %58 = load ptr, ptr %5, align 8, !tbaa !3
  %59 = getelementptr inbounds nuw %struct.KBKDF, ptr %58, i32 0, i32 8
  %60 = load ptr, ptr %5, align 8, !tbaa !3
  %61 = getelementptr inbounds nuw %struct.KBKDF, ptr %60, i32 0, i32 9
  %62 = call i32 @ossl_prov_memdup(ptr noundef %54, i64 noundef %57, ptr noundef %59, ptr noundef %61)
  %63 = icmp ne i32 %62, 0
  br i1 %63, label %64, label %77

64:                                               ; preds = %51
  %65 = load ptr, ptr %4, align 8, !tbaa !3
  %66 = getelementptr inbounds nuw %struct.KBKDF, ptr %65, i32 0, i32 10
  %67 = load ptr, ptr %66, align 8, !tbaa !20
  %68 = load ptr, ptr %4, align 8, !tbaa !3
  %69 = getelementptr inbounds nuw %struct.KBKDF, ptr %68, i32 0, i32 11
  %70 = load i64, ptr %69, align 8, !tbaa !21
  %71 = load ptr, ptr %5, align 8, !tbaa !3
  %72 = getelementptr inbounds nuw %struct.KBKDF, ptr %71, i32 0, i32 10
  %73 = load ptr, ptr %5, align 8, !tbaa !3
  %74 = getelementptr inbounds nuw %struct.KBKDF, ptr %73, i32 0, i32 11
  %75 = call i32 @ossl_prov_memdup(ptr noundef %67, i64 noundef %70, ptr noundef %72, ptr noundef %74)
  %76 = icmp ne i32 %75, 0
  br i1 %76, label %78, label %77

77:                                               ; preds = %64, %51, %38, %25, %14
  br label %106

78:                                               ; preds = %64
  %79 = load ptr, ptr %4, align 8, !tbaa !3
  %80 = getelementptr inbounds nuw %struct.KBKDF, ptr %79, i32 0, i32 1
  %81 = load i32, ptr %80, align 8, !tbaa !22
  %82 = load ptr, ptr %5, align 8, !tbaa !3
  %83 = getelementptr inbounds nuw %struct.KBKDF, ptr %82, i32 0, i32 1
  store i32 %81, ptr %83, align 8, !tbaa !22
  %84 = load ptr, ptr %4, align 8, !tbaa !3
  %85 = getelementptr inbounds nuw %struct.KBKDF, ptr %84, i32 0, i32 3
  %86 = load i32, ptr %85, align 8, !tbaa !23
  %87 = load ptr, ptr %5, align 8, !tbaa !3
  %88 = getelementptr inbounds nuw %struct.KBKDF, ptr %87, i32 0, i32 3
  store i32 %86, ptr %88, align 8, !tbaa !23
  %89 = load ptr, ptr %4, align 8, !tbaa !3
  %90 = getelementptr inbounds nuw %struct.KBKDF, ptr %89, i32 0, i32 12
  %91 = load i32, ptr %90, align 8, !tbaa !24
  %92 = load ptr, ptr %5, align 8, !tbaa !3
  %93 = getelementptr inbounds nuw %struct.KBKDF, ptr %92, i32 0, i32 12
  store i32 %91, ptr %93, align 8, !tbaa !24
  %94 = load ptr, ptr %4, align 8, !tbaa !3
  %95 = getelementptr inbounds nuw %struct.KBKDF, ptr %94, i32 0, i32 14
  %96 = load i32, ptr %95, align 8, !tbaa !25
  %97 = load ptr, ptr %5, align 8, !tbaa !3
  %98 = getelementptr inbounds nuw %struct.KBKDF, ptr %97, i32 0, i32 14
  store i32 %96, ptr %98, align 8, !tbaa !25
  %99 = load ptr, ptr %4, align 8, !tbaa !3
  %100 = getelementptr inbounds nuw %struct.KBKDF, ptr %99, i32 0, i32 13
  %101 = load i32, ptr %100, align 4, !tbaa !26
  %102 = load ptr, ptr %5, align 8, !tbaa !3
  %103 = getelementptr inbounds nuw %struct.KBKDF, ptr %102, i32 0, i32 13
  store i32 %101, ptr %103, align 4, !tbaa !26
  br label %104

104:                                              ; preds = %78, %1
  %105 = load ptr, ptr %5, align 8, !tbaa !3
  store ptr %105, ptr %2, align 8
  store i32 1, ptr %6, align 4
  br label %108

106:                                              ; preds = %77
  %107 = load ptr, ptr %5, align 8, !tbaa !3
  call void @kbkdf_free(ptr noundef %107)
  store ptr null, ptr %2, align 8
  store i32 1, ptr %6, align 4
  br label %108

108:                                              ; preds = %106, %104
  call void @llvm.lifetime.end.p0(i64 8, ptr %5) #6
  call void @llvm.lifetime.end.p0(i64 8, ptr %4) #6
  %109 = load ptr, ptr %2, align 8
  ret ptr %109
}