; Function Attrs: nounwind uwtable
define internal ptr @kbkdf_dup(ptr noundef readonly captures(none) %0) #0 {
  %2 = load ptr, ptr %0, align 8, !tbaa !3
  %3 = tail call i32 @ossl_prov_is_running() #7
  %.not.i = icmp eq i32 %3, 0
  br i1 %.not.i, label %kbkdf_new.exit.thread, label %4

4:                                                ; preds = %1
  %5 = tail call noalias ptr @CRYPTO_zalloc(i64 noundef 112, ptr noundef nonnull @.str, i32 noundef 121) #7
  %6 = icmp eq ptr %5, null
  br i1 %6, label %kbkdf_new.exit.thread, label %7

7:                                                ; preds = %4
  store ptr %2, ptr %5, align 8, !tbaa !3
  %8 = getelementptr inbounds nuw i8, ptr %5, i64 24
  store i32 32, ptr %8, align 8, !tbaa !12
  %9 = getelementptr inbounds nuw i8, ptr %5, i64 96
  store i32 1, ptr %9, align 8, !tbaa !13
  %10 = getelementptr inbounds nuw i8, ptr %5, i64 104
  store i32 1, ptr %10, align 8, !tbaa !14
  %11 = getelementptr inbounds nuw i8, ptr %5, i64 100
  store i32 0, ptr %11, align 4, !tbaa !15
  %12 = getelementptr inbounds nuw i8, ptr %0, i64 16
  %13 = load ptr, ptr %12, align 8, !tbaa !16
  %14 = tail call ptr @EVP_MAC_CTX_dup(ptr noundef %13) #7
  %15 = getelementptr inbounds nuw i8, ptr %5, i64 16
  store ptr %14, ptr %15, align 8, !tbaa !16
  %16 = icmp eq ptr %14, null
  br i1 %16, label %kbkdf_free.exit, label %17

17:                                               ; preds = %7
  %18 = getelementptr inbounds nuw i8, ptr %0, i64 32
  %19 = load ptr, ptr %18, align 8, !tbaa !17
  %20 = getelementptr inbounds nuw i8, ptr %0, i64 40
  %21 = load i64, ptr %20, align 8, !tbaa !18
  %22 = getelementptr inbounds nuw i8, ptr %5, i64 32
  %23 = getelementptr inbounds nuw i8, ptr %5, i64 40
  %24 = tail call i32 @ossl_prov_memdup(ptr noundef %19, i64 noundef %21, ptr noundef nonnull %22, ptr noundef nonnull %23) #7
  %.not36 = icmp eq i32 %24, 0
  br i1 %.not36, label %kbkdf_free.exit, label %25

25:                                               ; preds = %17
  %26 = getelementptr inbounds nuw i8, ptr %0, i64 48
  %27 = load ptr, ptr %26, align 8, !tbaa !19
  %28 = getelementptr inbounds nuw i8, ptr %0, i64 56
  %29 = load i64, ptr %28, align 8, !tbaa !20
  %30 = getelementptr inbounds nuw i8, ptr %5, i64 48
  %31 = getelementptr inbounds nuw i8, ptr %5, i64 56
  %32 = tail call i32 @ossl_prov_memdup(ptr noundef %27, i64 noundef %29, ptr noundef nonnull %30, ptr noundef nonnull %31) #7
  %.not37 = icmp eq i32 %32, 0
  br i1 %.not37, label %kbkdf_free.exit, label %33

33:                                               ; preds = %25
  %34 = getelementptr inbounds nuw i8, ptr %0, i64 64
  %35 = load ptr, ptr %34, align 8, !tbaa !21
  %36 = getelementptr inbounds nuw i8, ptr %0, i64 72
  %37 = load i64, ptr %36, align 8, !tbaa !22
  %38 = getelementptr inbounds nuw i8, ptr %5, i64 64
  %39 = getelementptr inbounds nuw i8, ptr %5, i64 72
  %40 = tail call i32 @ossl_prov_memdup(ptr noundef %35, i64 noundef %37, ptr noundef nonnull %38, ptr noundef nonnull %39) #7
  %.not38 = icmp eq i32 %40, 0
  br i1 %.not38, label %kbkdf_free.exit, label %41

41:                                               ; preds = %33
  %42 = getelementptr inbounds nuw i8, ptr %0, i64 80
  %43 = load ptr, ptr %42, align 8, !tbaa !23
  %44 = getelementptr inbounds nuw i8, ptr %0, i64 88
  %45 = load i64, ptr %44, align 8, !tbaa !24
  %46 = getelementptr inbounds nuw i8, ptr %5, i64 80
  %47 = getelementptr inbounds nuw i8, ptr %5, i64 88
  %48 = tail call i32 @ossl_prov_memdup(ptr noundef %43, i64 noundef %45, ptr noundef nonnull %46, ptr noundef nonnull %47) #7
  %.not39 = icmp eq i32 %48, 0
  br i1 %.not39, label %kbkdf_free.exit, label %49

49:                                               ; preds = %41
  %50 = getelementptr inbounds nuw i8, ptr %0, i64 8
  %51 = load i32, ptr %50, align 8, !tbaa !25
  %52 = getelementptr inbounds nuw i8, ptr %5, i64 8
  store i32 %51, ptr %52, align 8, !tbaa !25
  %53 = getelementptr inbounds nuw i8, ptr %0, i64 24
  %54 = load i32, ptr %53, align 8, !tbaa !12
  store i32 %54, ptr %8, align 8, !tbaa !12
  %55 = getelementptr inbounds nuw i8, ptr %0, i64 96
  %56 = load i32, ptr %55, align 8, !tbaa !13
  store i32 %56, ptr %9, align 8, !tbaa !13
  %57 = getelementptr inbounds nuw i8, ptr %0, i64 104
  %58 = load i32, ptr %57, align 8, !tbaa !14
  store i32 %58, ptr %10, align 8, !tbaa !14
  %59 = getelementptr inbounds nuw i8, ptr %0, i64 100
  %60 = load i32, ptr %59, align 4, !tbaa !15
  store i32 %60, ptr %11, align 4, !tbaa !15
  br label %kbkdf_new.exit.thread

kbkdf_free.exit:                                  ; preds = %7, %17, %25, %33, %41
  %61 = load ptr, ptr %5, align 8, !tbaa !3
  %62 = load ptr, ptr %15, align 8, !tbaa !16
  tail call void @EVP_MAC_CTX_free(ptr noundef %62) #7
  %63 = getelementptr inbounds nuw i8, ptr %5, i64 64
  %64 = load ptr, ptr %63, align 8, !tbaa !21
  %65 = getelementptr inbounds nuw i8, ptr %5, i64 72
  %66 = load i64, ptr %65, align 8, !tbaa !22
  tail call void @CRYPTO_clear_free(ptr noundef %64, i64 noundef %66, ptr noundef nonnull @.str, i32 noundef 147) #7
  %67 = getelementptr inbounds nuw i8, ptr %5, i64 48
  %68 = load ptr, ptr %67, align 8, !tbaa !19
  %69 = getelementptr inbounds nuw i8, ptr %5, i64 56
  %70 = load i64, ptr %69, align 8, !tbaa !20
  tail call void @CRYPTO_clear_free(ptr noundef %68, i64 noundef %70, ptr noundef nonnull @.str, i32 noundef 148) #7
  %71 = getelementptr inbounds nuw i8, ptr %5, i64 32
  %72 = load ptr, ptr %71, align 8, !tbaa !17
  %73 = getelementptr inbounds nuw i8, ptr %5, i64 40
  %74 = load i64, ptr %73, align 8, !tbaa !18
  tail call void @CRYPTO_clear_free(ptr noundef %72, i64 noundef %74, ptr noundef nonnull @.str, i32 noundef 149) #7
  %75 = getelementptr inbounds nuw i8, ptr %5, i64 80
  %76 = load ptr, ptr %75, align 8, !tbaa !23
  %77 = getelementptr inbounds nuw i8, ptr %5, i64 88
  %78 = load i64, ptr %77, align 8, !tbaa !24
  tail call void @CRYPTO_clear_free(ptr noundef %76, i64 noundef %78, ptr noundef nonnull @.str, i32 noundef 150) #7
  %79 = getelementptr inbounds nuw i8, ptr %5, i64 8
  tail call void @llvm.memset.p0.i64(ptr noundef nonnull align 8 dereferenceable(112) %79, i8 0, i64 104, i1 false)
  store ptr %61, ptr %5, align 8, !tbaa !3
  store i32 32, ptr %8, align 8, !tbaa !12
  store i32 1, ptr %9, align 8, !tbaa !13
  store i32 1, ptr %10, align 8, !tbaa !14
  tail call void @CRYPTO_free(ptr noundef nonnull %5, ptr noundef nonnull @.str, i32 noundef 137) #7
  br label %kbkdf_new.exit.thread

kbkdf_new.exit.thread:                            ; preds = %4, %1, %49, %kbkdf_free.exit
  %.0 = phi ptr [ null, %kbkdf_free.exit ], [ %5, %49 ], [ null, %1 ], [ null, %4 ]
  ret ptr %.0
}